; This file is hand-created from an export/disasm from the GameLogic.dll in the game.
; You can run
;     dumpbin /EXPORTS GameLogic.dll
;     dumpbin /DISASM GameLogic.dll
; to get these values.
EXPORTS
?GetGameAPIObject@@YAPAVGameAPI@@XZ
?Random@@YAHH@Z
?Random@@YAHHH@Z
?RandomFloat@@YAMMM@Z
?SetGameAPIObject@@YAXPAVGameAPI@@@Z
?CreateActor@?$ActorFactory@V?$GoldenEggPickup@$00@@@@UAEPAVActor@@XZ
?CreateActor@?$ActorFactory@V?$GoldenEggPickup@$01@@@@UAEPAVActor@@XZ
?CreateActor@?$ActorFactory@V?$GoldenEggPickup@$02@@@@UAEPAVActor@@XZ
?CreateActor@?$ActorFactory@V?$GoldenEggPickup@$03@@@@UAEPAVActor@@XZ
?CreateActor@?$ActorFactory@V?$GoldenEggPickup@$04@@@@UAEPAVActor@@XZ
?CreateActor@?$ActorFactory@V?$GoldenEggPickup@$05@@@@UAEPAVActor@@XZ
?CreateActor@?$ActorFactory@V?$GoldenEggPickup@$06@@@@UAEPAVActor@@XZ
?CreateActor@?$ActorFactory@V?$GoldenEggPickup@$07@@@@UAEPAVActor@@XZ
?CreateActor@?$ActorFactory@V?$GoldenEggPickup@$08@@@@UAEPAVActor@@XZ
?CreateActor@?$ActorFactory@VAngryBear@@@@UAEPAVActor@@XZ
?CreateActor@?$ActorFactory@VBallmerPeakEgg@@@@UAEPAVActor@@XZ
?CreateActor@?$ActorFactory@VBear@@@@UAEPAVActor@@XZ
?CreateActor@?$ActorFactory@VBearChest@@@@UAEPAVActor@@XZ
?CreateActor@?$ActorFactory@VBlockyChest@@@@UAEPAVActor@@XZ
?CreateActor@?$ActorFactory@VBlueDrop@@@@UAEPAVActor@@XZ
?CreateActor@?$ActorFactory@VCaveSpider@@@@UAEPAVActor@@XZ
?CreateActor@?$ActorFactory@VCowChest@@@@UAEPAVActor@@XZ
?CreateActor@?$ActorFactory@VCowKing@@@@UAEPAVActor@@XZ
?CreateActor@?$ActorFactory@VFarmer@@@@UAEPAVActor@@XZ
?CreateActor@?$ActorFactory@VFireball@@@@UAEPAVActor@@XZ
?CreateActor@?$ActorFactory@VGiantRat@@@@UAEPAVActor@@XZ
?CreateActor@?$ActorFactory@VGreatBallsOfFirePickup@@@@UAEPAVActor@@XZ
?CreateActor@?$ActorFactory@VGreenDrop@@@@UAEPAVActor@@XZ
?CreateActor@?$ActorFactory@VGunShopOwner@@@@UAEPAVActor@@XZ
?CreateActor@?$ActorFactory@VHandCannonProjectile@@@@UAEPAVActor@@XZ
?CreateActor@?$ActorFactory@VHolyHandGrenadeProjectile@@@@UAEPAVActor@@XZ
?CreateActor@?$ActorFactory@VIceSpiderQueen@@@@UAEPAVActor@@XZ
?CreateActor@?$ActorFactory@VIceSpiderQueenProjectile@@@@UAEPAVActor@@XZ
?CreateActor@?$ActorFactory@VJustinTolerable@@@@UAEPAVActor@@XZ
?CreateActor@?$ActorFactory@VLavaChest@@@@UAEPAVActor@@XZ
?CreateActor@?$ActorFactory@VLostCaveBush@@@@UAEPAVActor@@XZ
?CreateActor@?$ActorFactory@VMadCow@@@@UAEPAVActor@@XZ
?CreateActor@?$ActorFactory@VMagmarok@@@@UAEPAVActor@@XZ
?CreateActor@?$ActorFactory@VMagmarokFireball@@@@UAEPAVActor@@XZ
?CreateActor@?$ActorFactory@VMichaelAngelo@@@@UAEPAVActor@@XZ
?CreateActor@?$ActorFactory@VOPFireballProjectile@@@@UAEPAVActor@@XZ
?CreateActor@?$ActorFactory@VPurpleDrop@@@@UAEPAVActor@@XZ
?CreateActor@?$ActorFactory@VWhiteDrop@@@@UAEPAVActor@@XZ
?CreateActor@?$ActorFactory@VZeroCoolProjectile@@@@UAEPAVActor@@XZ
?CreateActor@?$ActorFactoryWithOwner@VFireball@@@@UAEPAVActor@@PAVIActor@@@Z
?CreateActor@?$ActorFactoryWithOwner@VHandCannonProjectile@@@@UAEPAVActor@@PAVIActor@@@Z
?CreateActor@?$ActorFactoryWithOwner@VHolyHandGrenadeProjectile@@@@UAEPAVActor@@PAVIActor@@@Z
?CreateActor@?$ActorFactoryWithOwner@VIceSpiderQueenProjectile@@@@UAEPAVActor@@PAVIActor@@@Z
?CreateActor@?$ActorFactoryWithOwner@VMagmarokFireball@@@@UAEPAVActor@@PAVIActor@@@Z
?CreateActor@?$ActorFactoryWithOwner@VOPFireballProjectile@@@@UAEPAVActor@@PAVIActor@@@Z
?CreateActor@?$ActorFactoryWithOwner@VZeroCoolProjectile@@@@UAEPAVActor@@PAVIActor@@@Z
?GetNameForEgg@?$GoldenEggPickup@$00@@CA?AV?$basic_string@DU?$char_traits@D@std@@V?$allocator@D@2@@std@@H@Z
?GetNameForEgg@?$GoldenEggPickup@$01@@CA?AV?$basic_string@DU?$char_traits@D@std@@V?$allocator@D@2@@std@@H@Z
?GetNameForEgg@?$GoldenEggPickup@$02@@CA?AV?$basic_string@DU?$char_traits@D@std@@V?$allocator@D@2@@std@@H@Z
?GetNameForEgg@?$GoldenEggPickup@$03@@CA?AV?$basic_string@DU?$char_traits@D@std@@V?$allocator@D@2@@std@@H@Z
?GetNameForEgg@?$GoldenEggPickup@$04@@CA?AV?$basic_string@DU?$char_traits@D@std@@V?$allocator@D@2@@std@@H@Z
?GetNameForEgg@?$GoldenEggPickup@$05@@CA?AV?$basic_string@DU?$char_traits@D@std@@V?$allocator@D@2@@std@@H@Z
?GetNameForEgg@?$GoldenEggPickup@$06@@CA?AV?$basic_string@DU?$char_traits@D@std@@V?$allocator@D@2@@std@@H@Z
?GetNameForEgg@?$GoldenEggPickup@$07@@CA?AV?$basic_string@DU?$char_traits@D@std@@V?$allocator@D@2@@std@@H@Z
?GetNameForEgg@?$GoldenEggPickup@$08@@CA?AV?$basic_string@DU?$char_traits@D@std@@V?$allocator@D@2@@std@@H@Z
?GetDescription@Achievement@@UAEPBDXZ
?GetName@Achievement@@UAEPBDXZ
?Destroy@AchievementList@@UAEXXZ
?GetAchievement@AchievementList@@UAEPAVIAchievement@@I@Z
?GetCount@AchievementList@@UAEIXZ
?AddRef@Actor@@UAEXXZ
?Damage@Actor@@UAEXPAVIActor@@PAVIItem@@HW4DamageType@@@Z
?FireBullets@Actor@@QAEXPAVIItem@@HW4DamageType@@ABUVector3@@MIM@Z
?FireBullets@Actor@@QAEXPAVIItem@@HW4DamageType@@MIM@Z
?FreeShopItems@Actor@@UAEXPAPAVIItem@@@Z
?GetBlueprintName@Actor@@UAEPBDXZ
?GetBuyPriceForItem@Actor@@UAEHPAVIItem@@@Z
?GetDeathMessage@Actor@@UAE?AV?$basic_string@DU?$char_traits@D@std@@V?$allocator@D@2@@std@@XZ
?GetHealth@Actor@@UAEHXZ
?GetLookPosition@Actor@@UAE?AUVector3@@XZ
?GetLookRotation@Actor@@UAE?AURotation@@XZ
?GetMaximumDamageDistance@Actor@@UAEMXZ
?GetShopBuyPriceMultiplier@Actor@@UAEMXZ
?GetShopItems@Actor@@UAE?AV?$vector@PAVIItem@@V?$allocator@PAVIItem@@@std@@@std@@XZ
?GetShopItems@Actor@@UAEPAPAVIItem@@AAI@Z
?GetUE4Actor@Actor@@UAEPAXXZ
?GetValidBuyItems@Actor@@UAE?AV?$vector@PAVIItem@@V?$allocator@PAVIItem@@@std@@@std@@XZ
?IsValid@Actor@@UBEHXZ
?OnDestroyActor@Actor@@UAEXXZ
?OnHit@Actor@@UAEXPAVIActor@@ABUVector3@@1@Z
?OnKilled@Actor@@MAEXPAVIActor@@PAVIItem@@@Z
?OnSpawnActor@Actor@@UAEXPAVIUE4Actor@@@Z
?OnUse@Actor@@UAEXPAVIPlayer@@@Z
?Release@Actor@@UAEXXZ
?SetPosition@Actor@@QAEXABUVector3@@@Z
?ShouldReceivePositionUpdates@Actor@@UAEHXZ
?Tick@Actor@@UAEXM@Z
?TriggerEvent@Actor@@UAEXABV?$basic_string@DU?$char_traits@D@std@@V?$allocator@D@2@@std@@PAVIActor@@H@Z
?UpdateState@Actor@@UAEXABV?$basic_string@DU?$char_traits@D@std@@V?$allocator@D@2@@std@@H@Z
?OnAIMoveComplete@AIActor@@UAEXXZ
?ShouldReceivePositionUpdates@AIActor@@UAEHXZ
?Tick@AIActor@@UAEXM@Z
?TransitionToState@AIActor@@QAEXABV?$basic_string@DU?$char_traits@D@std@@V?$allocator@D@2@@std@@PAVActor@@@Z
?TransitionToState@AIActor@@UAEXPAVAIState@@PAVActor@@@Z
?Tick@AIState@@UAEXM@Z
?OnPlayerEntered@AIZone@@QAEXXZ
?OnPlayerLeft@AIZone@@QAEXXZ
?RemoveListener@AIZone@@QAEXPAVAIZoneListener@@@Z
?SetAIZone@AIZoneListener@@QAEXABV?$basic_string@DU?$char_traits@D@std@@V?$allocator@D@2@@std@@@Z
?GetAmmoType@AKRifle@@UAEPAVIItem@@XZ
?GetClipSize@AKRifle@@UAEIXZ
?GetCooldownTime@AKRifle@@UAEMXZ
?GetDamage@AKRifle@@UAEHXZ
?GetDescription@AKRifle@@UAEPBDXZ
?GetDisplayName@AKRifle@@UAEPBDXZ
?GetFlavorText@AKRifle@@UAEPBDXZ
?GetItemTypeName@AKRifle@@UAEPBDXZ
?GetName@AKRifle@@UAEPBDXZ
?GetSpreadAngle@AKRifle@@UAEMXZ
?GetTradeValue@AKRifle@@UAEHXZ
?GetAggressionRadius@AngryBear@@UAEMXZ
?GetAttackDamage@AngryBear@@UAEHXZ
?GetDeathMessage@AngryBear@@UAE?AV?$basic_string@DU?$char_traits@D@std@@V?$allocator@D@2@@std@@XZ
?GetDisplayName@AngryBear@@UAEPBDXZ
?GetMaxHealth@AngryBear@@UAEHXZ
?GetMaximumDamageDistance@AngryBear@@UAEMXZ
?InitAngryBear@AngryBear@@AAEXXZ
?GetMaxActors@AngryBearSpawner@@UAEIXZ
?Spawn@AngryBearSpawner@@UAEPAVActor@@XZ
?CanUse@BallmerPeakEgg@@UAEHPAVIPlayer@@@Z
?CanBeDamaged@BallmerPeakPoster@@UAEHPAVIActor@@@Z
?Damage@BallmerPeakPoster@@UAEXPAVIActor@@PAVIItem@@HW4DamageType@@@Z
?AttackForChest@Bear@@QAEXPAVIPlayer@@@Z
?EndChestDefense@Bear@@QAEXXZ
?GetAggressionRadius@Bear@@UAEMXZ
?GetAttackDamage@Bear@@UAEHXZ
?GetDeathMessage@Bear@@UAE?AV?$basic_string@DU?$char_traits@D@std@@V?$allocator@D@2@@std@@XZ
?GetDisplayName@Bear@@UAEPBDXZ
?GetMaximumDamageDistance@Bear@@UAEMXZ
?Init@Bear@@IAEXXZ
?OnEndAttack@Bear@@UAEXXZ
?OnKilled@Bear@@MAEXPAVIActor@@PAVIItem@@@Z
?OnPrepareAttack@Bear@@UAEXPAVActor@@@Z
?OnTargetKilled@Bear@@MAEXPAVIActor@@PAVIItem@@@Z
?CanUse@BearChest@@UAEHPAVIPlayer@@@Z
?GetMinimumTimeRemaining@BearChest@@AAEMXZ
?PerformUse@BearChest@@UAEXPAVIPlayer@@@Z
?Tick@BearChest@@UAEXM@Z
?UpdatePlayerAttacks@BearChest@@AAEXXZ
?EnterState@BearDefendChestState@@UAEXPAVActor@@@Z
?OnAIMoveComplete@BearDefendChestState@@UAEXXZ
?EnterState@BearShootState@@UAEXPAVActor@@@Z
?LeaveState@BearShootState@@UAEXXZ
?GetDescription@BearSkin@@EAEPBDXZ
?GetDisplayName@BearSkin@@EAEPBDXZ
?GetFlavorText@BearSkin@@EAEPBDXZ
?GetItemTypeName@BearSkin@@EAEPBDXZ
?GetName@BearSkin@@EAEPBDXZ
?GetTradeValue@BearSkin@@EAEHXZ
?GetMaxActors@BearSpawner@@UAEIXZ
?Spawn@BearSpawner@@UAEPAVActor@@XZ
?CanUse@BlockyChest@@UAEHPAVIPlayer@@@Z
?PerformUse@BlockyChest@@UAEXPAVIPlayer@@@Z
?GetAttackDamage@CaveSpider@@UAEHXZ
?GetDeathMessage@CaveSpider@@UAE?AV?$basic_string@DU?$char_traits@D@std@@V?$allocator@D@2@@std@@XZ
?GetDisplayName@CaveSpider@@UAEPBDXZ
?GetMaximumDamageDistance@CaveSpider@@UAEMXZ
?Spawn@CaveSpiderSpawner@@UAEPAVActor@@XZ
?Activate@ClientHandler@@AAEXXZ
?BuyItem@ClientHandler@@AAEXXZ
?Chat@ClientHandler@@AAEXXZ
?EquipItem@ClientHandler@@AAEXXZ
?FastTravel@ClientHandler@@AAEXXZ
?FireRequest@ClientHandler@@AAEXXZ
?Jump@ClientHandler@@AAEXXZ
?MoveAndGetEvents@ClientHandler@@AAEHXZ
?ProcessCommands@ClientHandler@@QAEXXZ
?SellItem@ClientHandler@@AAEXXZ
?SetCircuitInputs@ClientHandler@@AAEXXZ
?SetCurrentQuest@ClientHandler@@AAEXXZ
?SetCurrentSlot@ClientHandler@@AAEXXZ
?SetPvPDesired@ClientHandler@@AAEXXZ
?Sprint@ClientHandler@@AAEXXZ
?SubmitDLCKey@ClientHandler@@AAEXXZ
?Teleport@ClientHandler@@AAEXXZ
?TransitionToNPCState@ClientHandler@@AAEXXZ
?Use@ClientHandler@@AAEXXZ
?Activate@ClientWorld@@UAEXPAVPlayer@@PAVIItem@@@Z
?AddLocalPlayer@ClientWorld@@UAEXPAVPlayer@@PAVILocalPlayer@@@Z
?BuyItem@ClientWorld@@UAEXPAVPlayer@@PAVActor@@PAVIItem@@I@Z
?Chat@ClientWorld@@UAEXPAVPlayer@@ABV?$basic_string@DU?$char_traits@D@std@@V?$allocator@D@2@@std@@@Z
?EquipItem@ClientWorld@@UAEXPAVPlayer@@EPAVIItem@@@Z
?FastTravel@ClientWorld@@UAEXPAVPlayer@@ABV?$basic_string@DU?$char_traits@D@std@@V?$allocator@D@2@@std@@1@Z
?FireRequest@ClientWorld@@UAEXH@Z
?Jump@ClientWorld@@UAEXH@Z
?Reload@ClientWorld@@UAEXPAVPlayer@@@Z
?Respawn@ClientWorld@@UAEXPAVPlayer@@@Z
?SellItem@ClientWorld@@UAEXPAVPlayer@@PAVActor@@PAVIItem@@I@Z
?SendCircuitOutputEvent@ClientWorld@@UAEXPAVPlayer@@ABV?$basic_string@DU?$char_traits@D@std@@V?$allocator@D@2@@std@@IABV?$vector@HV?$allocator@H@std@@@4@@Z
?SendFireBulletsEvent@ClientWorld@@UAEXPAVActor@@PAVIItem@@ABUVector3@@IM@Z
?SetCircuitInputs@ClientWorld@@UAEXPAVPlayer@@ABV?$basic_string@DU?$char_traits@D@std@@V?$allocator@D@2@@std@@I@Z
?SetCurrentQuest@ClientWorld@@UAEXPAVPlayer@@PAVIQuest@@@Z
?SetCurrentSlot@ClientWorld@@UAEXPAVPlayer@@E@Z
?SetPvPDesired@ClientWorld@@UAEXPAVPlayer@@H@Z
?Sprint@ClientWorld@@UAEXH@Z
?SubmitDLCKey@ClientWorld@@UAEXPAVPlayer@@ABV?$basic_string@DU?$char_traits@D@std@@V?$allocator@D@2@@std@@@Z
?Teleport@ClientWorld@@UAEXPAVPlayer@@ABV?$basic_string@DU?$char_traits@D@std@@V?$allocator@D@2@@std@@@Z
?Tick@ClientWorld@@UAEXM@Z
?TransitionToNPCState@ClientWorld@@UAEXPAVPlayer@@ABV?$basic_string@DU?$char_traits@D@std@@V?$allocator@D@2@@std@@@Z
?Use@ClientWorld@@UAEXPAVPlayer@@PAVActor@@@Z
?Spawn@CliffRatSpawner@@UAEPAVActor@@XZ
?GetDescription@Coin@@UAEPBDXZ
?GetDisplayName@Coin@@UAEPBDXZ
?GetFlavorText@Coin@@UAEPBDXZ
?GetItemTypeName@Coin@@UAEPBDXZ
?GetMaximumCount@Coin@@UAEIXZ
?GetName@Coin@@UAEPBDXZ
?GetAmmoType@CowboyCoder@@UAEPAVIItem@@XZ
?GetClipSize@CowboyCoder@@UAEIXZ
?GetCooldownTime@CowboyCoder@@UAEMXZ
?GetDamage@CowboyCoder@@UAEHXZ
?GetDescription@CowboyCoder@@UAEPBDXZ
?GetDisplayName@CowboyCoder@@UAEPBDXZ
?GetFlavorText@CowboyCoder@@UAEPBDXZ
?GetItemTypeName@CowboyCoder@@UAEPBDXZ
?GetName@CowboyCoder@@UAEPBDXZ
?GetReloadTime@CowboyCoder@@UAEMH@Z
?GetTradeValue@CowboyCoder@@UAEHXZ
?CanUse@CowChest@@UAEHPAVIPlayer@@@Z
?PerformUse@CowChest@@UAEXPAVIPlayer@@@Z
?Damage@CowKing@@UAEXPAVIActor@@PAVIItem@@HW4DamageType@@@Z
?GetAggressionRadius@CowKing@@UAEMXZ
?GetAttackDamage@CowKing@@UAEHXZ
?GetAttackItem@CowKing@@UAEPAVIItem@@XZ
?GetDeathMessage@CowKing@@UAE?AV?$basic_string@DU?$char_traits@D@std@@V?$allocator@D@2@@std@@XZ
?GetDisplayName@CowKing@@UAEPBDXZ
?GetMaxHealth@CowKing@@UAEHXZ
?GetRangedAttackDistance@CowKing@@UBEMXZ
?OnKilled@CowKing@@MAEXPAVIActor@@PAVIItem@@@Z
?ShouldTargetPlayer@CowKing@@UAEHPAVPlayer@@@Z
?GetSpawnTimer@CowKingSpawner@@UAEMXZ
?Spawn@CowKingSpawner@@UAEPAVActor@@XZ
?IsAvailable@CowLevelDestination@@UAEHPAVPlayer@@@Z
?CanUse@Drop@@UAEHPAVIPlayer@@@Z
?PerformUse@Drop@@UAEXPAVIPlayer@@@Z
?SpawnDrop@Drop@@SAPAV1@ABV?$map@PAVIItem@@IU?$less@PAVIItem@@@std@@V?$allocator@U?$pair@QAVIItem@@I@std@@@3@@std@@ABUVector3@@@Z
?Attack@Enemy@@UAEXPAVActor@@@Z
?Damage@Enemy@@UAEXPAVIActor@@PAVIItem@@HW4DamageType@@@Z
?GetAggressionRadius@Enemy@@UAEMXZ
?GetAttackHitTime@Enemy@@UAEMXZ
?GetAttackTime@Enemy@@UAEMXZ
?GetLookRotation@Enemy@@UAE?AURotation@@XZ
?GetMaximumDamageDistance@Enemy@@UAEMXZ
?OnKilled@Enemy@@MAEXPAVIActor@@PAVIItem@@@Z
?EnterState@EnemyAttackState@@UAEXPAVActor@@@Z
?LeaveState@EnemyAttackState@@UAEXXZ
?CheckForTargetVisibility@EnemyChaseState@@IAEXXZ
?EnterState@EnemyChaseState@@UAEXPAVActor@@@Z
?OnAIMoveComplete@EnemyChaseState@@UAEXXZ
?EnterState@EnemyIdleState@@UAEXPAVActor@@@Z
?LookForPlayers@EnemyIdleState@@IAEXXZ
?OnAIMoveComplete@EnemyIdleState@@UAEXXZ
?StartIdleMovement@EnemyIdleState@@IAEXXZ
?GetDisplayName@Farmer@@UAEPBDXZ
?GetInitialState@Farmer@@UAE?AV?$basic_string@DU?$char_traits@D@std@@V?$allocator@D@2@@std@@PAVIPlayer@@@Z
?OnTransitionTaken@Farmer@@UAEXPAVIPlayer@@ABV?$basic_string@DU?$char_traits@D@std@@V?$allocator@D@2@@std@@1@Z
?AddToListIfValid@FastTravelDestination@@QAEXAAV?$vector@UFastTravelInfo@@V?$allocator@UFastTravelInfo@@@std@@@std@@PAVPlayer@@ABV?$basic_string@DU?$char_traits@D@std@@V?$allocator@D@2@@3@@Z
?IsAvailable@FastTravelDestination@@UAEHPAVPlayer@@@Z
?MarkAsVisited@FastTravelDestination@@QAEXPAVPlayer@@@Z
?GetCount@FastTravelList@@UAEIXZ
?GetDisplayName@FastTravelList@@UAEPBDI@Z
?GetRegionName@FastTravelList@@UAEPBDI@Z
?GetDamageType@Fireball@@UAE?AW4DamageType@@XZ
?CanActivate@Flag@@UAEHPAVIPlayer@@@Z
?CanActivateInInventory@Flag@@UAEHXZ
?GetDescription@Flag@@UAEPBDXZ
?GetItemTypeName@Flag@@UAEPBDXZ
?IsUpdating@Flag@@UAEHXZ
?Reset@Flag@@UAEXXZ
?Update@Flag@@UAEXXZ
?GetDisplayName@FlagOfTheBear@@UAEPBDXZ
?GetName@FlagOfTheBear@@UAEPBDXZ
?GetDisplayName@FlagOfTheBlock@@UAEPBDXZ
?GetName@FlagOfTheBlock@@UAEPBDXZ
?GetDisplayName@FlagOfTheCow@@UAEPBDXZ
?GetName@FlagOfTheCow@@UAEPBDXZ
?GetDisplayName@FlagOfTheEggHunter@@UAEPBDXZ
?GetName@FlagOfTheEggHunter@@UAEPBDXZ
?GetDisplayName@FlagOfTheLava@@UAEPBDXZ
?GetName@FlagOfTheLava@@UAEPBDXZ
?GetDisplayName@FlagOfTheOverachiever@@UAEPBDXZ
?GetName@FlagOfTheOverachiever@@UAEPBDXZ
?GetDisplayName@FlagOfThePirate@@UAEPBDXZ
?GetName@FlagOfThePirate@@UAEPBDXZ
?ConnectToGameServer@GameAPI@@QAEXPBDGH0@Z
?ConnectToMasterServer@GameAPI@@QAEXPBDG0@Z
?CreateCharacter@GameAPI@@QAEXPBDEPAI@Z
?CreateRemoteActorByName@GameAPI@@QAEPAVActor@@ABV?$basic_string@DU?$char_traits@D@std@@V?$allocator@D@2@@std@@H@Z
?CreateRemoteActorByNameWithOwner@GameAPI@@QAEPAVActor@@ABV?$basic_string@DU?$char_traits@D@std@@V?$allocator@D@2@@std@@HPAVIActor@@@Z
?DeleteCharacter@GameAPI@@QAEXH@Z
?DisconnectFromMasterServer@GameAPI@@QAEXXZ
?Enqueue@GameAPI@@QAEXABV?$function@$$A6AXXZ@std@@@Z
?GetAchievement@GameAPI@@QAEPAVIAchievement@@PBD@Z
?GetAchievementList@GameAPI@@QAE?AV?$vector@PAVIAchievement@@V?$allocator@PAVIAchievement@@@std@@@std@@XZ
?GetAchievements@GameAPI@@QAEPAVIAchievementList@@XZ
?GetCharacterId@GameAPI@@QAEHXZ
?GetFastTravelDestination@GameAPI@@QAEPAVFastTravelDestination@@ABV?$basic_string@DU?$char_traits@D@std@@V?$allocator@D@2@@std@@@Z
?GetGameServer@GameAPI@@QAEPAVGameServerConnection@@XZ
?GetGoldenEggCount@GameAPI@@QAEIXZ
?GetGoldenEggList@GameAPI@@QAE?AV?$vector@PAVItemPickup@@V?$allocator@PAVItemPickup@@@std@@@std@@XZ
?GetItemByName@GameAPI@@QAEPAVIItem@@PBD@Z
?GetLootTier@GameAPI@@QAEPAVLootTier@@I@Z
?GetMasterServer@GameAPI@@QAEPAVMasterServerConnection@@XZ
?GetNamedLocationPoint@GameAPI@@QAEHABV?$basic_string@DU?$char_traits@D@std@@V?$allocator@D@2@@std@@AAULocationAndRotation@@@Z
?GetNamedLocationPointList@GameAPI@@QAE?AV?$vector@ULocationAndRotation@@V?$allocator@ULocationAndRotation@@@std@@@std@@PBD@Z
?GetQuestByName@GameAPI@@QAEPAVIQuest@@PBD@Z
?GetSpawnPoints@GameAPI@@QAE?AV?$vector@ULocationAndRotation@@V?$allocator@ULocationAndRotation@@@std@@@std@@PBD@Z
?GetTeamHash@GameAPI@@QAEPBDXZ
?GetTeammates@GameAPI@@QAEXXZ
?GetTeamName@GameAPI@@QAEPBDXZ
?GetTeamPlayerCount@GameAPI@@QAEHXZ
?GetTotalPlayerCount@GameAPI@@QAEHXZ
?GetUserId@GameAPI@@QAEHXZ
?GetUserNameW@GameAPI@@QAEPBDXZ
?GiveAll@GameAPI@@QAEXPAVIPlayer@@@Z
?HasActorFactory@GameAPI@@QAEHABV?$basic_string@DU?$char_traits@D@std@@V?$allocator@D@2@@std@@@Z
?InitClient@GameAPI@@QAEXPAVILocalPlayer@@@Z
?InitLocal@GameAPI@@QAEXPAVILocalPlayer@@@Z
?InitObjects@GameAPI@@AAEXXZ
?InitServer@GameAPI@@QAEXPBDGH0G000@Z
?IsAuthority@GameAPI@@QAEHXZ
?IsConnectedToGameServer@GameAPI@@QAEHXZ
?IsConnectedToMasterServer@GameAPI@@QAEHXZ
?IsDedicatedServer@GameAPI@@QAEHXZ
?IsTransitioningToNewServer@GameAPI@@QAEHXZ
?JoinGameServer@GameAPI@@QAEXHH@Z
?Log@GameAPI@@QAAXPBDZZ
?Login@GameAPI@@QAEXPBD0@Z
?Process@GameAPI@@QAEXABV?$function@$$A6AXXZ@std@@@Z
?Register@GameAPI@@QAEXPBD00@Z
?Shutdown@GameAPI@@QAEXXZ
?StartServerListener@GameAPI@@AAEXABUServerInfo@@@Z
?SubmitAnswer@GameAPI@@QAEXPBD0@Z
?Tick@GameAPI@@QAEXM@Z
?TransitionToNewGameServer@GameAPI@@QAEXXZ
?UpdatePlayerCounts@GameAPI@@QAEXXZ
?Activate@GameServerConnection@@QAEXPAVPlayer@@PAVIItem@@@Z
?BuyItem@GameServerConnection@@QAEXPAVActor@@PAVIItem@@I@Z
?Chat@GameServerConnection@@QAEXABV?$basic_string@DU?$char_traits@D@std@@V?$allocator@D@2@@std@@@Z
?Connect@GameServerConnection@@QAEXABV?$basic_string@DU?$char_traits@D@std@@V?$allocator@D@2@@std@@GH0ABV?$function@$$A6AXHABV?$basic_string@DU?$char_traits@D@std@@V?$allocator@D@2@@std@@IABULocationAndRotation@@@Z@3@@Z
?EquipItem@GameServerConnection@@QAEXEPAVIItem@@@Z
?FastTravel@GameServerConnection@@QAEXABV?$basic_string@DU?$char_traits@D@std@@V?$allocator@D@2@@std@@0@Z
?GetServerType@GameServerConnection@@MAEPBDXZ
?MoveAndGetEvents@GameServerConnection@@QAEXPAVPlayer@@@Z
?NotifyDisconnect@GameServerConnection@@IAEXXZ
?OnActorDestroyEvent@GameServerConnection@@IAEXPAVPlayer@@@Z
?OnActorSpawnEvent@GameServerConnection@@IAEXPAVPlayer@@@Z
?OnAddItemEvent@GameServerConnection@@IAEXPAVPlayer@@@Z
?OnAdvanceQuestToStateEvent@GameServerConnection@@IAEXPAVPlayer@@@Z
?OnChatEvent@GameServerConnection@@IAEXPAVPlayer@@@Z
?OnCircuitOutputEvent@GameServerConnection@@IAEXPAVPlayer@@@Z
?OnCompleteQuestEvent@GameServerConnection@@IAEXPAVPlayer@@@Z
?OnCountdownUpdateEvent@GameServerConnection@@IAEXPAVPlayer@@@Z
?OnCurrentSlotEvent@GameServerConnection@@IAEXPAVPlayer@@@Z
?OnDisplayEvent@GameServerConnection@@IAEXPAVPlayer@@@Z
?OnEquipItemEvent@GameServerConnection@@IAEXPAVPlayer@@@Z
?OnFireBulletsEvent@GameServerConnection@@IAEXPAVPlayer@@@Z
?OnHealthUpdateEvent@GameServerConnection@@IAEXPAVPlayer@@@Z
?OnKillEvent@GameServerConnection@@IAEXPAVPlayer@@@Z
?OnLastHitByItemEvent@GameServerConnection@@IAEXPAVPlayer@@@Z
?OnLoadedAmmoEvent@GameServerConnection@@IAEXPAVPlayer@@@Z
?OnManaUpdateEvent@GameServerConnection@@IAEXPAVPlayer@@@Z
?OnNPCConversationEndEvent@GameServerConnection@@IAEXPAVPlayer@@@Z
?OnNPCConversationStateEvent@GameServerConnection@@IAEXPAVPlayer@@@Z
?OnNPCShopEvent@GameServerConnection@@IAEXPAVPlayer@@@Z
?OnPickedUpEvent@GameServerConnection@@IAEXPAVPlayer@@@Z
?OnPlayerItemEvent@GameServerConnection@@IAEXPAVPlayer@@@Z
?OnPlayerJoinedEvent@GameServerConnection@@IAEXPAVPlayer@@@Z
?OnPlayerLeftEvent@GameServerConnection@@IAEXPAVPlayer@@@Z
?OnPlayerPositionEvent@GameServerConnection@@IAEXPAVPlayer@@@Z
?OnPositionAndVelocityEvent@GameServerConnection@@IAEXPAVPlayer@@@Z
?OnPositionEvent@GameServerConnection@@IAEXPAVPlayer@@@Z
?OnPvPCountdownUpdateEvent@GameServerConnection@@IAEXPAVPlayer@@@Z
?OnPvPEnableEvent@GameServerConnection@@IAEXPAVPlayer@@@Z
?OnRegionChangeEvent@GameServerConnection@@IAEXPAVPlayer@@@Z
?OnRelativeTeleportEvent@GameServerConnection@@IAEXPAVPlayer@@@Z
?OnReloadEvent@GameServerConnection@@IAEXPAVPlayer@@@Z
?OnRemoteReloadEvent@GameServerConnection@@IAEXPAVPlayer@@@Z
?OnRemoveItemEvent@GameServerConnection@@IAEXPAVPlayer@@@Z
?OnRespawnOtherPlayerEvent@GameServerConnection@@IAEXPAVPlayer@@@Z
?OnRespawnThisPlayerEvent@GameServerConnection@@IAEXPAVPlayer@@@Z
?OnSetCurrentQuestEvent@GameServerConnection@@IAEXPAVPlayer@@@Z
?OnStartQuestEvent@GameServerConnection@@IAEXPAVPlayer@@@Z
?OnStateEvent@GameServerConnection@@IAEXPAVPlayer@@@Z
?OnTeleportEvent@GameServerConnection@@IAEXPAVPlayer@@@Z
?OnTriggerEvent@GameServerConnection@@IAEXPAVPlayer@@@Z
?SellItem@GameServerConnection@@QAEXPAVActor@@PAVIItem@@I@Z
?SetCircuitInputs@GameServerConnection@@QAEXABV?$basic_string@DU?$char_traits@D@std@@V?$allocator@D@2@@std@@I@Z
?SetCurrentQuest@GameServerConnection@@QAEXPAVIQuest@@@Z
?SubmitDLCKey@GameServerConnection@@QAEXABV?$basic_string@DU?$char_traits@D@std@@V?$allocator@D@2@@std@@@Z
?Teleport@GameServerConnection@@QAEXABV?$basic_string@DU?$char_traits@D@std@@V?$allocator@D@2@@std@@@Z
?TransitionToNPCState@GameServerConnection@@QAEXABV?$basic_string@DU?$char_traits@D@std@@V?$allocator@D@2@@std@@@Z
?GetAttackDamage@GiantRat@@UAEHXZ
?GetDeathMessage@GiantRat@@UAE?AV?$basic_string@DU?$char_traits@D@std@@V?$allocator@D@2@@std@@XZ
?GetDisplayName@GiantRat@@UAEPBDXZ
?GetDescription@GoldenEgg@@UAEPBDXZ
?GetDisplayName@GoldenEgg@@UAEPBDXZ
?GetFlavorText@GoldenEgg@@UAEPBDXZ
?GetItemTypeName@GoldenEgg@@UAEPBDXZ
?GetName@GoldenEgg@@UAEPBDXZ
?GetCooldownTime@GoldenMaster@@UAEMXZ
?GetDamage@GoldenMaster@@UAEHXZ
?GetDescription@GoldenMaster@@UAEPBDXZ
?GetDisplayName@GoldenMaster@@UAEPBDXZ
?GetFlavorText@GoldenMaster@@UAEPBDXZ
?GetName@GoldenMaster@@UAEPBDXZ
?GetReloadTime@GoldenMaster@@UAEMH@Z
?CanActivate@GreatBallsOfFire@@UAEHPAVIPlayer@@@Z
?GetDescription@GreatBallsOfFire@@UAEPBDXZ
?GetDisplayName@GreatBallsOfFire@@UAEPBDXZ
?GetFlavorText@GreatBallsOfFire@@UAEPBDXZ
?GetItemTypeName@GreatBallsOfFire@@UAEPBDXZ
?GetName@GreatBallsOfFire@@UAEPBDXZ
?PerformActivate@GreatBallsOfFire@@UAEXPAVIPlayer@@@Z
?SpawnProjectile@GreatBallsOfFire@@UAEXPAVPlayer@@@Z
?GetCustomCostDescription@Grenade@@UAEPBDXZ
?PerformActivate@Grenade@@UAEXPAVIPlayer@@@Z
?OnLifetimeEnded@GrenadeProjectile@@UAEXXZ
?CanActivate@Gun@@UAEHPAVIPlayer@@@Z
?GetDamagePerSecond@Gun@@UAEHXZ
?GetReloadTime@Gun@@UAEMH@Z
?LocalActivate@Gun@@UAEXPAVIPlayer@@@Z
?PerformActivate@Gun@@UAEXPAVIPlayer@@@Z
?GetDisplayName@GunShopOwner@@UAEPBDXZ
?GetInitialState@GunShopOwner@@UAE?AV?$basic_string@DU?$char_traits@D@std@@V?$allocator@D@2@@std@@PAVIPlayer@@@Z
?GetShopItems@GunShopOwner@@UAE?AV?$vector@PAVIItem@@V?$allocator@PAVIItem@@@std@@@std@@XZ
?CanActivate@HandCannon@@UAEHPAVIPlayer@@@Z
?GetAmmoType@HandCannon@@UAEPAVIItem@@XZ
?GetDamage@HandCannon@@UAEHXZ
?GetDescription@HandCannon@@UAEPBDXZ
?GetDisplayName@HandCannon@@UAEPBDXZ
?GetFlavorText@HandCannon@@UAEPBDXZ
?GetItemTypeName@HandCannon@@UAEPBDXZ
?GetName@HandCannon@@UAEPBDXZ
?PerformActivate@HandCannon@@UAEXPAVIPlayer@@@Z
?SpawnProjectile@HandCannon@@UAEXPAVPlayer@@@Z
?GetDirectDamage@HandCannonProjectile@@UAEHXZ
?GetSplashRadius@HandCannonProjectile@@UAEMXZ
?GetAmmoType@HeapSpray@@UAEPAVIItem@@XZ
?GetDescription@HeapSpray@@UAEPBDXZ
?GetDisplayName@HeapSpray@@UAEPBDXZ
?GetFlavorText@HeapSpray@@UAEPBDXZ
?GetItemTypeName@HeapSpray@@UAEPBDXZ
?GetName@HeapSpray@@UAEPBDXZ
?GetReloadTime@HeapSpray@@UAEMH@Z
?GetSpreadAngle@HeapSpray@@UAEMXZ
?GetCooldownTime@HolyHandGrenade@@UAEMXZ
?GetDamage@HolyHandGrenade@@UAEHXZ
?GetDescription@HolyHandGrenade@@UAEPBDXZ
?GetDisplayName@HolyHandGrenade@@UAEPBDXZ
?GetFlavorText@HolyHandGrenade@@UAEPBDXZ
?GetItemTypeName@HolyHandGrenade@@UAEPBDXZ
?GetName@HolyHandGrenade@@UAEPBDXZ
?GetTradeValue@HolyHandGrenade@@UAEHXZ
?SpawnProjectile@HolyHandGrenade@@UAEXPAVPlayer@@@Z
?GetAggressionRadius@IceSpiderQueen@@UAEMXZ
?GetAttackTime@IceSpiderQueen@@UAEMXZ
?GetDeathMessage@IceSpiderQueen@@UAE?AV?$basic_string@DU?$char_traits@D@std@@V?$allocator@D@2@@std@@XZ
?GetDisplayName@IceSpiderQueen@@UAEPBDXZ
?GetMaxHealth@IceSpiderQueen@@UAEHXZ
?OnPrepareAttack@IceSpiderQueen@@UAEXPAVActor@@@Z
?GetDamageType@IceSpiderQueenProjectile@@UAE?AW4DamageType@@XZ
?GetSpawnTimer@IceSpiderQueenSpawner@@UAEMXZ
?Spawn@IceSpiderQueenSpawner@@UAEPAVActor@@XZ
?GetCount@Inventory@@UAEIXZ
?GetItem@Inventory@@UAEPAVIItem@@I@Z
?GetItemCount@Inventory@@UAEII@Z
?GetItemLoadedAmmo@Inventory@@UAEII@Z
?AddRef@IPlayer@@QAEXXZ
?HideCountdown@IPlayer@@QAEXXZ
?Release@IPlayer@@QAEXXZ
?Activate@Item@@UAEXPAVIPlayer@@@Z
?CanActivate@Item@@UAEHPAVIPlayer@@@Z
?CanActivateInInventory@Item@@UAEHXZ
?GetAmmoType@Item@@UAEPAVIItem@@XZ
?GetCooldownTime@Item@@UAEMXZ
?GetCustomCostDescription@Item@@UAEPBDXZ
?GetDamagePerSecond@Item@@UAEHXZ
?GetMaximumCount@Item@@UAEIXZ
?GetReloadTime@Item@@UAEMH@Z
?CanUse@ItemPickup@@UAEHPAVIPlayer@@@Z
?PerformUse@ItemPickup@@UAEXPAVIPlayer@@@Z
?CheckForEarlyCompletion@ItemQuestState@@UAEXPAVIPlayer@@@Z
?OnItemAcquired@ItemQuestState@@UAEXPAVIPlayer@@PAVIItem@@@Z
?GetDisplayName@JustinTolerable@@UAEPBDXZ
?GetInitialState@JustinTolerable@@UAE?AV?$basic_string@DU?$char_traits@D@std@@V?$allocator@D@2@@std@@PAVIPlayer@@@Z
?GetSellPriceForItem@JustinTolerable@@UAEHPAVIItem@@@Z
?OnTransitionTaken@JustinTolerable@@UAEXPAVIPlayer@@ABV?$basic_string@DU?$char_traits@D@std@@V?$allocator@D@2@@std@@1@Z
?VerifyKey@KeyVerifier@@SAHABV?$basic_string@DU?$char_traits@D@std@@V?$allocator@D@2@@std@@@Z
?CanUse@LavaChest@@UAEHPAVIPlayer@@@Z
?PerformUse@LavaChest@@UAEXPAVIPlayer@@@Z
?Activate@LocalWorld@@UAEXPAVPlayer@@PAVIItem@@@Z
?BuyItem@LocalWorld@@UAEXPAVPlayer@@PAVActor@@PAVIItem@@I@Z
?Chat@LocalWorld@@UAEXPAVPlayer@@ABV?$basic_string@DU?$char_traits@D@std@@V?$allocator@D@2@@std@@@Z
?EquipItem@LocalWorld@@UAEXPAVPlayer@@EPAVIItem@@@Z
?FastTravel@LocalWorld@@UAEXPAVPlayer@@ABV?$basic_string@DU?$char_traits@D@std@@V?$allocator@D@2@@std@@1@Z
?Reload@LocalWorld@@UAEXPAVPlayer@@@Z
?Respawn@LocalWorld@@UAEXPAVPlayer@@@Z
?SellItem@LocalWorld@@UAEXPAVPlayer@@PAVActor@@PAVIItem@@I@Z
?SendChatEvent@LocalWorld@@UAEXPAVPlayer@@ABV?$basic_string@DU?$char_traits@D@std@@V?$allocator@D@2@@std@@@Z
?SendDisplayEvent@LocalWorld@@UAEXPAVPlayer@@ABV?$basic_string@DU?$char_traits@D@std@@V?$allocator@D@2@@std@@1@Z
?SetCircuitInputs@LocalWorld@@UAEXPAVPlayer@@ABV?$basic_string@DU?$char_traits@D@std@@V?$allocator@D@2@@std@@I@Z
?SetCurrentQuest@LocalWorld@@UAEXPAVPlayer@@PAVIQuest@@@Z
?SetCurrentSlot@LocalWorld@@UAEXPAVPlayer@@E@Z
?SetPvPDesired@LocalWorld@@UAEXPAVPlayer@@H@Z
?SubmitDLCKey@LocalWorld@@UAEXPAVPlayer@@ABV?$basic_string@DU?$char_traits@D@std@@V?$allocator@D@2@@std@@@Z
?Teleport@LocalWorld@@UAEXPAVPlayer@@ABV?$basic_string@DU?$char_traits@D@std@@V?$allocator@D@2@@std@@@Z
?TransitionToNPCState@LocalWorld@@UAEXPAVPlayer@@ABV?$basic_string@DU?$char_traits@D@std@@V?$allocator@D@2@@std@@@Z
?Use@LocalWorld@@UAEXPAVPlayer@@PAVActor@@@Z
?GetItems@LootTable@@QAE?AV?$map@PAVIItem@@IU?$less@PAVIItem@@@std@@V?$allocator@U?$pair@QAVIItem@@I@std@@@3@@std@@XZ
?GetRandomCount@LootTable@@AAEIXZ
?GetRandomItem@LootTable@@AAE?AULootEntry@@XZ
?SetCounts@LootTable@@QAEXIIM@Z
?SetTiers@LootTable@@QAEXIIM@Z
?AddItem@LootTier@@QAEXPAVIItem@@IIM@Z
?SetEmptyWeight@LootTier@@QAEXM@Z
?CanUse@LostCaveBush@@UAEHPAVIPlayer@@@Z
?Damage@LostCaveBush@@UAEXPAVIActor@@PAVIItem@@HW4DamageType@@@Z
?OnUse@LostCaveBush@@UAEXPAVIPlayer@@@Z
?PerformUse@LostCaveBush@@UAEXPAVIPlayer@@@Z
?Tick@LostCaveBush@@UAEXM@Z
?GetAttackDamage@MadCow@@UAEHXZ
?GetDeathMessage@MadCow@@UAE?AV?$basic_string@DU?$char_traits@D@std@@V?$allocator@D@2@@std@@XZ
?GetDisplayName@MadCow@@UAEPBDXZ
?Spawn@MadCowSpawner@@UAEPAVActor@@XZ
?Tick@MadCowSpawner@@UAEXM@Z
?Damage@Magmarok@@UAEXPAVIActor@@PAVIItem@@HW4DamageType@@@Z
?GetAttackTime@Magmarok@@UAEMXZ
?GetDeathMessage@Magmarok@@UAE?AV?$basic_string@DU?$char_traits@D@std@@V?$allocator@D@2@@std@@XZ
?GetDisplayName@Magmarok@@UAEPBDXZ
?GetMaxHealth@Magmarok@@UAEHXZ
?OnKilled@Magmarok@@MAEXPAVIActor@@PAVIItem@@@Z
?OnPrepareAttack@Magmarok@@UAEXPAVActor@@@Z
?ShouldAttack@Magmarok@@UBEHXZ
?Tick@Magmarok@@UAEXM@Z
?Spawn@MagmarokSpawner@@UAEPAVActor@@XZ
?AddServerToPool@MasterServerConnection@@QAEXABV?$basic_string@DU?$char_traits@D@std@@V?$allocator@D@2@@std@@G@Z
?CharacterRegionChange@MasterServerConnection@@QAEHHABV?$basic_string@DU?$char_traits@D@std@@V?$allocator@D@2@@std@@ABUVector3@@HHH@Z
?CompleteQuest@MasterServerConnection@@QAEXPAVPlayer@@ABV?$basic_string@DU?$char_traits@D@std@@V?$allocator@D@2@@std@@@Z
?Connect@MasterServerConnection@@QAEXABV?$basic_string@DU?$char_traits@D@std@@V?$allocator@D@2@@std@@G0ABV?$function@$$A6AXHABV?$basic_string@DU?$char_traits@D@std@@V?$allocator@D@2@@std@@1@Z@3@@Z
?CreateCharacter@MasterServerConnection@@QAEXABV?$basic_string@DU?$char_traits@D@std@@V?$allocator@D@2@@std@@EPAIABV?$function@$$A6AXHABV?$basic_string@DU?$char_traits@D@std@@V?$allocator@D@2@@std@@H@Z@3@@Z
?DeleteCharacter@MasterServerConnection@@QAEXHABV?$function@$$A6AXH@Z@std@@@Z
?GetCharacterList@MasterServerConnection@@QAEXABV?$function@$$A6AXHABV?$vector@UCharacterInfo@MasterServerConnection@@V?$allocator@UCharacterInfo@MasterServerConnection@@@std@@@std@@@Z@std@@@Z
?GetFlag@MasterServerConnection@@QAEXABV?$basic_string@DU?$char_traits@D@std@@V?$allocator@D@2@@std@@ABV?$function@$$A6AXHABV?$basic_string@DU?$char_traits@D@std@@V?$allocator@D@2@@std@@0@Z@3@@Z
?GetPlayerCounts@MasterServerConnection@@QAEXABV?$function@$$A6AXHH@Z@std@@@Z
?GetServerType@MasterServerConnection@@MAEPBDXZ
?GetTeammates@MasterServerConnection@@QAEXABV?$function@$$A6AXABV?$vector@UTeamMemberInfo@MasterServerConnection@@V?$allocator@UTeamMemberInfo@MasterServerConnection@@@std@@@std@@@Z@std@@@Z
?JoinGameServer@MasterServerConnection@@QAEXHABV?$function@$$A6AXHABV?$basic_string@DU?$char_traits@D@std@@V?$allocator@D@2@@std@@01G1ABUCharacterInfo@MasterServerConnection@@@Z@std@@@Z
?Login@MasterServerConnection@@QAEXABV?$basic_string@DU?$char_traits@D@std@@V?$allocator@D@2@@std@@0ABV?$function@$$A6AXHABV?$basic_string@DU?$char_traits@D@std@@V?$allocator@D@2@@std@@H110@Z@3@@Z
?MarkAsPickedUp@MasterServerConnection@@QAEXPAVPlayer@@ABV?$basic_string@DU?$char_traits@D@std@@V?$allocator@D@2@@std@@@Z
?NotifyDisconnect@MasterServerConnection@@IAEXXZ
?Register@MasterServerConnection@@QAEXABV?$basic_string@DU?$char_traits@D@std@@V?$allocator@D@2@@std@@00ABV?$function@$$A6AXHABV?$basic_string@DU?$char_traits@D@std@@V?$allocator@D@2@@std@@H110@Z@3@@Z
?SetActiveQuest@MasterServerConnection@@QAEXPAVPlayer@@ABV?$basic_string@DU?$char_traits@D@std@@V?$allocator@D@2@@std@@@Z
?StartQuest@MasterServerConnection@@QAEXPAVPlayer@@ABV?$basic_string@DU?$char_traits@D@std@@V?$allocator@D@2@@std@@1I@Z
?SubmitAnswer@MasterServerConnection@@QAEXABV?$basic_string@DU?$char_traits@D@std@@V?$allocator@D@2@@std@@0ABV?$function@$$A6AXHABV?$basic_string@DU?$char_traits@D@std@@V?$allocator@D@2@@std@@@Z@3@@Z
?UpdateItems@MasterServerConnection@@QAEXPAVPlayer@@@Z
?UpdateQuest@MasterServerConnection@@QAEXPAVPlayer@@ABV?$basic_string@DU?$char_traits@D@std@@V?$allocator@D@2@@std@@1I@Z
?ValidateCharacterToken@MasterServerConnection@@QAEHHABV?$basic_string@DU?$char_traits@D@std@@V?$allocator@D@2@@std@@AAUCharacterInfo@1@@Z
?GetDisplayName@MichaelAngelo@@UAEPBDXZ
?GetInitialState@MichaelAngelo@@UAE?AV?$basic_string@DU?$char_traits@D@std@@V?$allocator@D@2@@std@@PAVIPlayer@@@Z
?OnTransitionTaken@MichaelAngelo@@UAEXPAVIPlayer@@ABV?$basic_string@DU?$char_traits@D@std@@V?$allocator@D@2@@std@@1@Z
?AddState@NPC@@QAEXABV?$basic_string@DU?$char_traits@D@std@@V?$allocator@D@2@@std@@0@Z
?AddStateTransition@NPC@@QAEXABV?$basic_string@DU?$char_traits@D@std@@V?$allocator@D@2@@std@@00@Z
?AddStateTransitionToEnd@NPC@@QAEXABV?$basic_string@DU?$char_traits@D@std@@V?$allocator@D@2@@std@@0@Z
?AddStateTransitionToShop@NPC@@QAEXABV?$basic_string@DU?$char_traits@D@std@@V?$allocator@D@2@@std@@0@Z
?CanUse@NPC@@UAEHPAVIPlayer@@@Z
?GetBuyPriceForItem@NPC@@UAEHPAVIItem@@@Z
?GetSellPriceForItem@NPC@@UAEHPAVIItem@@@Z
?GetTextForState@NPC@@QAE?AV?$basic_string@DU?$char_traits@D@std@@V?$allocator@D@2@@std@@ABV23@@Z
?GetTransitionsForState@NPC@@QAE?AV?$vector@UNPCStateTransition@@V?$allocator@UNPCStateTransition@@@std@@@std@@ABV?$basic_string@DU?$char_traits@D@std@@V?$allocator@D@2@@3@@Z
?PerformUse@NPC@@UAEXPAVIPlayer@@@Z
?GetDirectDamage@OPFireballProjectile@@UAEHXZ
?GetCooldownTime@OverpoweredFireball@@UAEMXZ
?GetDamage@OverpoweredFireball@@UAEHXZ
?GetDescription@OverpoweredFireball@@UAEPBDXZ
?GetDisplayName@OverpoweredFireball@@UAEPBDXZ
?GetFlavorText@OverpoweredFireball@@UAEPBDXZ
?GetManaCost@OverpoweredFireball@@UAEHXZ
?GetName@OverpoweredFireball@@UAEPBDXZ
?GetTradeValue@OverpoweredFireball@@UAEHXZ
?SpawnProjectile@OverpoweredFireball@@UAEXPAVPlayer@@@Z
?CheckForEarlyCompletion@PickupQuestState@@UAEXPAVIPlayer@@@Z
?OnItemPickupUsed@PickupQuestState@@UAEXPAVIPlayer@@PBD@Z
?GetClipSize@Pistol@@UAEIXZ
?GetCooldownTime@Pistol@@UAEMXZ
?GetDamage@Pistol@@UAEHXZ
?GetDescription@Pistol@@UAEPBDXZ
?GetDisplayName@Pistol@@UAEPBDXZ
?GetFlavorText@Pistol@@UAEPBDXZ
?GetItemTypeName@Pistol@@UAEPBDXZ
?GetTradeValue@Pistol@@UAEHXZ
?GetDescription@PistolAmmo@@EAEPBDXZ
?GetDisplayName@PistolAmmo@@EAEPBDXZ
?GetFlavorText@PistolAmmo@@EAEPBDXZ
?GetItemTypeName@PistolAmmo@@EAEPBDXZ
?GetName@PistolAmmo@@EAEPBDXZ
?AddItem@Player@@UAEHPAVIItem@@IH@Z
?AddLoadedAmmo@Player@@UAEHPAVIItem@@0I@Z
?AdvanceQuestToState@Player@@UAEXPAVIQuest@@PAVIQuestState@@@Z
?BuyItem@Player@@UAEXPAVIActor@@PAVIItem@@I@Z
?CanJump@Player@@UAEHXZ
?CanReload@Player@@UAEHXZ
?Chat@Player@@UAEXPBD@Z
?CompleteQuest@Player@@UAEXPAVIQuest@@@Z
?Damage@Player@@UAEXPAVIActor@@PAVIItem@@HW4DamageType@@@Z
?EnterAIZone@Player@@UAEXPBD@Z
?EnterNPCShop@Player@@QAEXPAVNPC@@@Z
?EnterRegion@Player@@UAEXPBD@Z
?EquipItem@Player@@UAEXIPAVIItem@@@Z
?ExitAIZone@Player@@UAEXPBD@Z
?FastTravel@Player@@UAEXPBD0@Z
?FreeQuestList@Player@@UAEXPAPAVIQuest@@@Z
?GetActorInterface@Player@@UAEPAVIActor@@XZ
?GetAvatarIndex@Player@@UAEEXZ
?GetCircuitInputs@Player@@UAEIPBD@Z
?GetCircuitOutputs@Player@@UAEXPBDPAHI@Z
?GetColors@Player@@UAEPBIXZ
?GetCurrentItem@Player@@UAEPAVIItem@@XZ
?GetCurrentQuest@Player@@UAEPAVIQuest@@XZ
?GetCurrentSlot@Player@@UAEIXZ
?GetFastTravelDestinations@Player@@UAEPAVIFastTravel@@PBD@Z
?GetInventory@Player@@UAEPAVIInventory@@XZ
?GetItemCooldown@Player@@UAEMPAVIItem@@@Z
?GetItemCount@Player@@UAEIPAVIItem@@@Z
?GetItemForSlot@Player@@UAEPAVIItem@@I@Z
?GetJumpHoldTime@Player@@UAEMXZ
?GetJumpSpeed@Player@@UAEMXZ
?GetLoadedAmmo@Player@@UAEIPAVIItem@@@Z
?GetLocalPlayer@Player@@UBEPAVILocalPlayer@@XZ
?GetLookPosition@Player@@UAE?AUVector3@@XZ
?GetLookRotation@Player@@UAE?AURotation@@XZ
?GetMana@Player@@UAEHXZ
?GetPlayerInterface@Player@@UAEPAVIPlayer@@XZ
?GetQuestList@Player@@UAEPAPAVIQuest@@PAI@Z
?GetSpawnLocation@Player@@QAE?AULocationAndRotation@@XZ
?GetStateForQuest@Player@@UAE?AUPlayerQuestState@@PAVIQuest@@@Z
?GetWalkingSpeed@Player@@UAEMXZ
?HasAchieved@Player@@UAEHPAVIAchievement@@@Z
?HasPickedUp@Player@@UAEHPBD@Z
?InitCircuitStates@Player@@QAEXXZ
?IsItemOnCooldown@Player@@UAEHPAVIItem@@@Z
?IsLocalPlayer@Player@@UBEHXZ
?IsPvPDesired@Player@@UAEHXZ
?IsPvPEnabled@Player@@UAEHXZ
?IsQuestCompleted@Player@@UAEHPAVIQuest@@@Z
?IsQuestStarted@Player@@UAEHPAVIQuest@@@Z
?MarkAsAchieved@Player@@UAEXPAVIAchievement@@@Z
?MarkAsPickedUp@Player@@UAEXPBD@Z
?OnDestroyActor@Player@@UAEXXZ
?OnKilled@Player@@MAEXPAVIActor@@PAVIItem@@@Z
?OnKillEvent@Player@@QAEXPAVIPlayer@@PAVIActor@@PAVIItem@@@Z
?OnTravelComplete@Player@@QAEXABV?$basic_string@DU?$char_traits@D@std@@V?$allocator@D@2@@std@@@Z
?PerformAddItem@Player@@QAEHPAVIItem@@IH@Z
?PerformAdvanceQuestToState@Player@@QAEXPAVIQuest@@PAVIQuestState@@@Z
?PerformBuyItem@Player@@QAEXPAVIActor@@PAVIItem@@I@Z
?PerformChat@Player@@QAEXABV?$basic_string@DU?$char_traits@D@std@@V?$allocator@D@2@@std@@@Z
?PerformCompleteQuest@Player@@QAEXPAVIQuest@@@Z
?PerformEquipItem@Player@@QAEXIPAVIItem@@@Z
?PerformFastTravel@Player@@QAEXABV?$basic_string@DU?$char_traits@D@std@@V?$allocator@D@2@@std@@0@Z
?PerformMarkAsPickedUp@Player@@QAEXABV?$basic_string@DU?$char_traits@D@std@@V?$allocator@D@2@@std@@@Z
?PerformRemoveItem@Player@@QAEHPAVIItem@@I@Z
?PerformRequestReload@Player@@QAEXXZ
?PerformRespawn@Player@@QAEXXZ
?PerformSellItem@Player@@QAEXPAVIActor@@PAVIItem@@I@Z
?PerformSetCircuitInputs@Player@@QAEXABV?$basic_string@DU?$char_traits@D@std@@V?$allocator@D@2@@std@@I@Z
?PerformSetCurrentQuest@Player@@QAEXPAVIQuest@@@Z
?PerformSetPvPEnabled@Player@@QAEXH@Z
?PerformStartQuest@Player@@QAEXPAVIQuest@@@Z
?PerformSubmitDLCKey@Player@@QAEXABV?$basic_string@DU?$char_traits@D@std@@V?$allocator@D@2@@std@@@Z
?PerformTeleport@Player@@QAEXABV?$basic_string@DU?$char_traits@D@std@@V?$allocator@D@2@@std@@@Z
?PerformTransitionToNPCState@Player@@QAEXABV?$basic_string@DU?$char_traits@D@std@@V?$allocator@D@2@@std@@@Z
?ReceiveChat@Player@@QAEXPAV1@ABV?$basic_string@DU?$char_traits@D@std@@V?$allocator@D@2@@std@@@Z
?RemoveItem@Player@@UAEHPAVIItem@@I@Z
?RemoveLoadedAmmo@Player@@UAEHPAVIItem@@I@Z
?RequestReload@Player@@UAEXXZ
?Respawn@Player@@UAEXXZ
?SellItem@Player@@UAEXPAVIActor@@PAVIItem@@I@Z
?SendEvent@Player@@UAEXABVWriteStream@@@Z
?SetCircuitInputs@Player@@UAEXPBDI@Z
?SetCurrentNPCState@Player@@QAEXPAVNPC@@ABV?$basic_string@DU?$char_traits@D@std@@V?$allocator@D@2@@std@@@Z
?SetCurrentQuest@Player@@UAEXPAVIQuest@@@Z
?SetCurrentSlot@Player@@UAEXI@Z
?SetFireRequestState@Player@@UAEXH@Z
?SetInitialItemState@Player@@QAEXABV?$map@V?$basic_string@DU?$char_traits@D@std@@V?$allocator@D@2@@std@@UItemCountInfo@@U?$less@V?$basic_string@DU?$char_traits@D@std@@V?$allocator@D@2@@std@@@2@V?$allocator@U?$pair@$$CBV?$basic_string@DU?$char_traits@D@std@@V?$allocator@D@2@@std@@UItemCountInfo@@@std@@@2@@std@@ABV?$vector@V?$basic_string@DU?$char_traits@D@std@@V?$allocator@D@2@@std@@V?$allocator@V?$basic_string@DU?$char_traits@D@std@@V?$allocator@D@2@@std@@@2@@3@E@Z
?SetInitialQuestStates@Player@@QAEXABV?$map@V?$basic_string@DU?$char_traits@D@std@@V?$allocator@D@2@@std@@UQuestStateInfo@@U?$less@V?$basic_string@DU?$char_traits@D@std@@V?$allocator@D@2@@std@@@2@V?$allocator@U?$pair@$$CBV?$basic_string@DU?$char_traits@D@std@@V?$allocator@D@2@@std@@UQuestStateInfo@@@std@@@2@@std@@ABV?$basic_string@DU?$char_traits@D@std@@V?$allocator@D@2@@3@@Z
?SetItemCooldown@Player@@UAEXPAVIItem@@MH@Z
?SetJumpState@Player@@UAEXH@Z
?SetPvPDesired@Player@@UAEXH@Z
?SetSprintState@Player@@UAEXH@Z
?ShouldReceivePositionUpdates@Player@@UAEHXZ
?StartQuest@Player@@UAEXPAVIQuest@@@Z
?SubmitDLCKey@Player@@UAEXPBD@Z
?Teleport@Player@@UAEXPBD@Z
?Tick@Player@@UAEXM@Z
?TransitionToNPCState@Player@@UAEXPBD@Z
?TriggerEvent@Player@@UAEXABV?$basic_string@DU?$char_traits@D@std@@V?$allocator@D@2@@std@@PAVIActor@@H@Z
?UpdateCountdown@Player@@UAEXH@Z
?UpdateState@Player@@UAEXABV?$basic_string@DU?$char_traits@D@std@@V?$allocator@D@2@@std@@H@Z
?UseMana@Player@@UAEHH@Z
?WriteAllEvents@Player@@UAEXAAVWriteStream@@@Z
?DealDamage@Projectile@@QAEXPAVIActor@@@Z
?OnHit@Projectile@@UAEXPAVIActor@@ABUVector3@@1@Z
?SpawnProjectile@Projectile@@SAHPAVIActor@@PAV1@@Z
?Tick@Projectile@@UAEXM@Z
?GetDescription@PvPKill@@UAEPBDXZ
?GetDisplayName@PvPKill@@UAEPBDXZ
?GetFlavorText@PvPKill@@UAEPBDXZ
?GetItemTypeName@PvPKill@@UAEPBDXZ
?GetName@PvPKill@@UAEPBDXZ
?AddStartingState@Quest@@QAEXPAVIQuestState@@@Z
?AddState@Quest@@QAEXPAVIQuestState@@@Z
?GetDescription@Quest@@UAEPBDXZ
?GetStartingState@Quest@@UAEPAVIQuestState@@XZ
?GetStateByName@Quest@@UAEPAVIQuestState@@PBD@Z
?AdvanceToState@QuestState@@IAEXPAVIPlayer@@ABV?$basic_string@DU?$char_traits@D@std@@V?$allocator@D@2@@std@@@Z
?GetDescription@QuestState@@UAEPBDXZ
?OnItemAcquired@QuestState@@UAEXPAVIPlayer@@PAVIItem@@@Z
?IsCharacter@RemoteActor@@UAEHXZ
?GetAmmoType@RemoteExploit@@UAEPAVIItem@@XZ
?GetClipSize@RemoteExploit@@UAEIXZ
?GetDamage@RemoteExploit@@UAEHXZ
?GetDescription@RemoteExploit@@UAEPBDXZ
?GetDisplayName@RemoteExploit@@UAEPBDXZ
?GetFlavorText@RemoteExploit@@UAEPBDXZ
?GetItemTypeName@RemoteExploit@@UAEPBDXZ
?GetName@RemoteExploit@@UAEPBDXZ
?GetDescription@RevolverAmmo@@EAEPBDXZ
?GetDisplayName@RevolverAmmo@@EAEPBDXZ
?GetFlavorText@RevolverAmmo@@EAEPBDXZ
?GetName@RevolverAmmo@@EAEPBDXZ
?GetTradeValue@RevolverAmmo@@EAEHXZ
?GetDescription@RifleAmmo@@EAEPBDXZ
?GetDisplayName@RifleAmmo@@EAEPBDXZ
?GetFlavorText@RifleAmmo@@EAEPBDXZ
?GetName@RifleAmmo@@EAEPBDXZ
?GetClipSize@ROPChainGun@@UAEIXZ
?GetCooldownTime@ROPChainGun@@UAEMXZ
?GetDamage@ROPChainGun@@UAEHXZ
?GetDescription@ROPChainGun@@UAEPBDXZ
?GetDisplayName@ROPChainGun@@UAEPBDXZ
?GetFlavorText@ROPChainGun@@UAEPBDXZ
?GetItemTypeName@ROPChainGun@@UAEPBDXZ
?GetName@ROPChainGun@@UAEPBDXZ
?GetReloadTime@ROPChainGun@@UAEMH@Z
?CanActivate@RubicksCube@@UAEHPAVIPlayer@@@Z
?CanStealItem@RubicksCube@@AAEHPAVPlayer@@PAVIItem@@@Z
?GetCooldownTime@RubicksCube@@UAEMXZ
?GetDescription@RubicksCube@@UAEPBDXZ
?GetDisplayName@RubicksCube@@UAEPBDXZ
?GetFlavorText@RubicksCube@@UAEPBDXZ
?GetItemTypeName@RubicksCube@@UAEPBDXZ
?GetName@RubicksCube@@UAEPBDXZ
?PerformActivate@RubicksCube@@UAEXPAVIPlayer@@@Z
?Disconnect@ServerConnection@@QAEXXZ
?ServerEnqueue@ServerConnection@@IAEXABV?$function@$$A6AXXZ@std@@@Z
?ServerProcess@ServerConnection@@IAEXABV?$function@$$A6AXXZ@std@@@Z
?StartConnectionThread@ServerConnection@@IAEXXZ
?ThreadProc@ServerConnection@@IAEXXZ
?Start@ServerThread@@QAEXXZ
?ThreadProc@ServerThread@@AAEXXZ
?Activate@ServerWorld@@UAEXPAVPlayer@@PAVIItem@@@Z
?SendActorDestroyEvent@ServerWorld@@UAEXPAVActor@@@Z
?SendActorPositionEvents@ServerWorld@@UAEXPAVPlayer@@@Z
?SendActorSpawnEvent@ServerWorld@@UAEXPAVActor@@@Z
?SendAddItemEvent@ServerWorld@@UAEXPAVPlayer@@PAVIItem@@I@Z
?SendAdvanceQuestToStateEvent@ServerWorld@@UAEXPAVPlayer@@PAVIQuest@@PAVIQuestState@@@Z
?SendChatEvent@ServerWorld@@UAEXPAVPlayer@@ABV?$basic_string@DU?$char_traits@D@std@@V?$allocator@D@2@@std@@@Z
?SendCircuitOutputEvent@ServerWorld@@UAEXPAVPlayer@@ABV?$basic_string@DU?$char_traits@D@std@@V?$allocator@D@2@@std@@IABV?$vector@HV?$allocator@H@std@@@4@@Z
?SendCompleteQuestEvent@ServerWorld@@UAEXPAVPlayer@@PAVIQuest@@@Z
?SendCountdownUpdateEvent@ServerWorld@@UAEXPAVPlayer@@H@Z
?SendCurrentSlotEvent@ServerWorld@@UAEXPAVPlayer@@E@Z
?SendDisplayEvent@ServerWorld@@UAEXPAVPlayer@@ABV?$basic_string@DU?$char_traits@D@std@@V?$allocator@D@2@@std@@1@Z
?SendEquipItemEvent@ServerWorld@@UAEXPAVPlayer@@EPAVIItem@@@Z
?SendExistingActorEvent@ServerWorld@@UAEXPAVPlayer@@PAVActor@@@Z
?SendExistingPlayerEvent@ServerWorld@@UAEXPAVPlayer@@0@Z
?SendFireBulletsEvent@ServerWorld@@UAEXPAVActor@@PAVIItem@@ABUVector3@@IM@Z
?SendHealthUpdateEvent@ServerWorld@@UAEXPAVActor@@H@Z
?SendKillEvent@ServerWorld@@UAEXPAVPlayer@@PAVActor@@PAVIItem@@@Z
?SendLastHitByItemEvent@ServerWorld@@UAEXPAVPlayer@@PAVIItem@@@Z
?SendLoadedAmmoEvent@ServerWorld@@UAEXPAVPlayer@@PAVIItem@@I@Z
?SendManaUpdateEvent@ServerWorld@@UAEXPAVPlayer@@H@Z
?SendNPCConversationEndEvent@ServerWorld@@UAEXPAVPlayer@@@Z
?SendNPCConversationStateEvent@ServerWorld@@UAEXPAVPlayer@@PAVActor@@ABV?$basic_string@DU?$char_traits@D@std@@V?$allocator@D@2@@std@@@Z
?SendNPCShopEvent@ServerWorld@@UAEXPAVPlayer@@PAVActor@@@Z
?SendPickedUpEvent@ServerWorld@@UAEXPAVPlayer@@ABV?$basic_string@DU?$char_traits@D@std@@V?$allocator@D@2@@std@@@Z
?SendPlayerItemEvent@ServerWorld@@UAEXPAVPlayer@@@Z
?SendPlayerJoinedEvent@ServerWorld@@UAEXPAVPlayer@@@Z
?SendPlayerLeftEvent@ServerWorld@@UAEXPAVPlayer@@@Z
?SendPvPCountdownUpdateEvent@ServerWorld@@UAEXPAVPlayer@@HH@Z
?SendPvPEnableEvent@ServerWorld@@UAEXPAVPlayer@@H@Z
?SendRegionChangeEvent@ServerWorld@@UAEXPAVPlayer@@ABV?$basic_string@DU?$char_traits@D@std@@V?$allocator@D@2@@std@@@Z
?SendRelativeTeleportEvent@ServerWorld@@UAEXPAVActor@@ABUVector3@@@Z
?SendReloadEvent@ServerWorld@@UAEXPAVPlayer@@PAVIItem@@1I@Z
?SendRemoveItemEvent@ServerWorld@@UAEXPAVPlayer@@PAVIItem@@I@Z
?SendRespawnEvent@ServerWorld@@UAEXPAVPlayer@@ABUVector3@@ABURotation@@@Z
?SendSetCurrentQuestEvent@ServerWorld@@UAEXPAVPlayer@@PAVIQuest@@@Z
?SendStartQuestEvent@ServerWorld@@UAEXPAVPlayer@@PAVIQuest@@@Z
?SendStateEvent@ServerWorld@@UAEXPAVActor@@ABV?$basic_string@DU?$char_traits@D@std@@V?$allocator@D@2@@std@@H@Z
?SendTeleportEvent@ServerWorld@@UAEXPAVActor@@ABUVector3@@ABURotation@@@Z
?SendTriggerEvent@ServerWorld@@UAEXPAVActor@@ABV?$basic_string@DU?$char_traits@D@std@@V?$allocator@D@2@@std@@0H@Z
?GetDescription@ShotgunAmmo@@EAEPBDXZ
?GetDisplayName@ShotgunAmmo@@EAEPBDXZ
?GetFlavorText@ShotgunAmmo@@EAEPBDXZ
?GetName@ShotgunAmmo@@EAEPBDXZ
?GetDescription@SniperAmmo@@EAEPBDXZ
?GetDisplayName@SniperAmmo@@EAEPBDXZ
?GetFlavorText@SniperAmmo@@EAEPBDXZ
?GetName@SniperAmmo@@EAEPBDXZ
?Read16@Socket@@QAEGXZ
?Read32@Socket@@QAEIXZ
?Read8@Socket@@QAEEXZ
?ReadFloat@Socket@@QAEMXZ
?ReadRotation@Socket@@QAE?AURotation@@XZ
?ReadString@Socket@@QAE?AV?$basic_string@DU?$char_traits@D@std@@V?$allocator@D@2@@std@@XZ
?GetMaxActors@Spawner@@UAEIXZ
?GetSpawnTimer@Spawner@@UAEMXZ
?OnAIZoneDeactivated@Spawner@@UAEXXZ
?RemoveActor@Spawner@@QAEXPAVActor@@@Z
?Tick@Spawner@@UAEXM@Z
?Read@SSLSocket@@UAEHPAXI@Z
?Write@SSLSocket@@UAEHPBXI@Z
?GetCooldownTime@StaticLink@@UAEMXZ
?GetDamageType@StaticLink@@UAE?AW4DamageType@@XZ
?GetDescription@StaticLink@@UAEPBDXZ
?GetDisplayName@StaticLink@@UAEPBDXZ
?GetFlavorText@StaticLink@@UAEPBDXZ
?GetName@StaticLink@@UAEPBDXZ
?GetRange@StaticLink@@UAEMXZ
?PerformActivate@StaticLink@@UAEXPAVIPlayer@@@Z
?Spawn@TailMountainsBearSpawner@@UAEPAVActor@@XZ
?Read@TCPSocket@@UAEHPAXI@Z
?Write@TCPSocket@@UAEHPBXI@Z
?Enqueue@ThreadActionQueue@@QAEXABV?$function@$$A6AXXZ@std@@@Z
?GetActionsForThisTick@ThreadActionQueue@@AAE?AV?$vector@V?$function@$$A6AXXZ@std@@V?$allocator@V?$function@$$A6AXXZ@std@@@2@@std@@XZ
?Process@ThreadActionQueue@@QAEXXZ
?Add@TimerSet@@QAEXABV?$basic_string@DU?$char_traits@D@std@@V?$allocator@D@2@@std@@MABV?$function@$$A6AXXZ@3@@Z
?AddRecurring@TimerSet@@QAEXABV?$basic_string@DU?$char_traits@D@std@@V?$allocator@D@2@@std@@MABV?$function@$$A6AXXZ@3@@Z
?AddWithContext@TimerSet@@QAEXABV?$basic_string@DU?$char_traits@D@std@@V?$allocator@D@2@@std@@MABV?$function@$$A6AXPAVActor@@@Z@3@@Z
?Tick@TimerSet@@QAEXPAVActor@@M@Z
?Spawn@TownBearSpawner@@UAEPAVActor@@XZ
?AddActorToWorld@World@@IAEXPAVActor@@@Z
?AddActorToWorldWithId@World@@IAEXIPAVActor@@@Z
?AddLocalPlayer@World@@UAEXPAVPlayer@@PAVILocalPlayer@@@Z
?AddRemotePlayer@World@@UAEXPAVPlayer@@@Z
?AddRemotePlayerWithId@World@@UAEXIPAVPlayer@@@Z
?ChangeActorId@World@@QAEXPAVPlayer@@I@Z
?DestroyActor@World@@QAEXPAVActor@@@Z
?GetPlayersInRadius@World@@QAE?AV?$vector@PAVIPlayer@@V?$allocator@PAVIPlayer@@@std@@@std@@ABUVector3@@M@Z
?GetProjectilesInRadius@World@@QAE?AV?$vector@PAVProjectile@@V?$allocator@PAVProjectile@@@std@@@std@@ABUVector3@@M@Z
?IsPlayerAlreadyConnected@World@@QAEHI@Z
?RemoveAllActorsExceptPlayer@World@@QAEXPAVPlayer@@@Z
?RemovePlayer@World@@UAEXPAVPlayer@@@Z
?SendEventToAllPlayers@World@@IAEXABVWriteStream@@@Z
?SendEventToAllPlayersExcept@World@@IAEXPAVPlayer@@ABVWriteStream@@@Z
?SendSpawnEventsForExistingActors@World@@QAEXPAVPlayer@@@Z
?SpawnActorWithId@World@@QAEXIPAVActor@@ABUVector3@@ABURotation@@@Z
?Flush@WriteStream@@QAEXXZ
?WriteRotation@WriteStream@@QAEXABURotation@@@Z
?WriteString@WriteStream@@QAEXABV?$basic_string@DU?$char_traits@D@std@@V?$allocator@D@2@@std@@@Z
?WriteVector@WriteStream@@QAEXABUVector3@@@Z
?WriteVector16@WriteStream@@QAEXABUVector3@@@Z
?GetDamage@ZeroCool@@UAEHXZ
?GetDescription@ZeroCool@@UAEPBDXZ
?GetDisplayName@ZeroCool@@UAEPBDXZ
?GetFlavorText@ZeroCool@@UAEPBDXZ
?GetName@ZeroCool@@UAEPBDXZ
?GetTradeValue@ZeroCool@@UAEHXZ
?SpawnProjectile@ZeroCool@@UAEXPAVPlayer@@@Z
